target datalayout = "e-m:e-p270:32:32-p271:32:32-p272:64:64-i64:64-i128:128-f80:128-n8:16:32:64-S128"
target triple = "x86_64-pc-linux-gnu"

%struct.ClusterInfo = type { %struct.ControlData, ptr, %struct.DbInfoArr, ptr, ptr, ptr, ptr, ptr, i16, i32, [64 x i8], i32, ptr, i32 }
%struct.ControlData = type { i32, i32, [25 x i8], i32, i32, i32, i32, i32, i32, i32, i32, i32, i32, i32, i32, i32, i32, i32, i32, i8, i8, i32 }
%struct.DbInfoArr = type { ptr, i32 }
%struct.OSInfo = type { ptr, ptr, i8, ptr, i32, ptr, i32, ptr }

@new_cluster = external global %struct.ClusterInfo, align 8
@os_info = external global %struct.OSInfo, align 8
@.str.90 = private unnamed_addr constant [10 x i8] c"template1\00", align 1
@.str.91 = private unnamed_addr constant [43 x i8] c"Checking database user is the install user\00", align 1
@.str.92 = private unnamed_addr constant [97 x i8] c"SELECT rolsuper, oid FROM pg_catalog.pg_roles WHERE rolname = current_user AND rolname !~ '^pg_'\00", align 1
@.str.93 = private unnamed_addr constant [43 x i8] c"database user \22%s\22 is not the install user\00", align 1
@.str.94 = private unnamed_addr constant [65 x i8] c"SELECT COUNT(*) FROM pg_catalog.pg_roles WHERE rolname !~ '^pg_'\00", align 1
@.str.95 = private unnamed_addr constant [40 x i8] c"could not determine the number of users\00", align 1
@.str.96 = private unnamed_addr constant [2 x i8] c"1\00", align 1
@.str.97 = private unnamed_addr constant [57 x i8] c"Only the install user can be defined in the new cluster.\00", align 1

; Function Attrs: nounwind uwtable
define internal void @check_is_install_user(ptr noundef %0) #0 {
  %2 = alloca ptr, align 8
  %3 = alloca ptr, align 8
  %4 = alloca ptr, align 8
  store ptr %0, ptr %2, align 8
  call void @llvm.lifetime.start.p0(i64 8, ptr %3) #9
  call void @llvm.lifetime.start.p0(i64 8, ptr %4) #9
  %5 = load ptr, ptr %2, align 8
  %6 = call ptr @connectToServer(ptr noundef %5, ptr noundef @.str.90)
  store ptr %6, ptr %4, align 8
  call void (ptr, ...) @prep_status(ptr noundef @.str.91)
  %7 = load ptr, ptr %4, align 8
  %8 = call ptr (ptr, ptr, ...) @executeQueryOrDie(ptr noundef %7, ptr noundef @.str.92)
  store ptr %8, ptr %3, align 8
  %9 = load ptr, ptr %3, align 8
  %10 = call i32 @PQntuples(ptr noundef %9)
  %11 = icmp ne i32 %10, 1
  br i1 %11, label %18, label %12

12:                                               ; preds = %1
  %13 = load ptr, ptr %3, align 8
  %14 = call ptr @PQgetvalue(ptr noundef %13, i32 noundef 0, i32 noundef 1)
  %15 = call i64 @strtoul(ptr noundef %14, ptr noundef null, i32 noundef 10) #9
  %16 = trunc i64 %15 to i32
  %17 = icmp ne i32 %16, 10
  br i1 %17, label %18, label %20

18:                                               ; preds = %12, %1
  %19 = load ptr, ptr getelementptr inbounds nuw (%struct.OSInfo, ptr @os_info, i32 0, i32 1), align 8
  call void (ptr, ...) @pg_fatal(ptr noundef @.str.93, ptr noundef %19) #11
  unreachable

20:                                               ; preds = %12
  %21 = load ptr, ptr %3, align 8
  call void @PQclear(ptr noundef %21)
  %22 = load ptr, ptr %4, align 8
  %23 = call ptr (ptr, ptr, ...) @executeQueryOrDie(ptr noundef %22, ptr noundef @.str.94)
  store ptr %23, ptr %3, align 8
  %24 = load ptr, ptr %3, align 8
  %25 = call i32 @PQntuples(ptr noundef %24)
  %26 = icmp ne i32 %25, 1
  br i1 %26, label %27, label %28

27:                                               ; preds = %20
  call void (ptr, ...) @pg_fatal(ptr noundef @.str.95) #11
  unreachable

28:                                               ; preds = %20
  %29 = load ptr, ptr %2, align 8
  %30 = icmp eq ptr %29, @new_cluster
  br i1 %30, label %31, label %37

31:                                               ; preds = %28
  %32 = load ptr, ptr %3, align 8
  %33 = call ptr @PQgetvalue(ptr noundef %32, i32 noundef 0, i32 noundef 0)
  %34 = call i32 @strcmp(ptr noundef %33, ptr noundef @.str.96) #10
  %35 = icmp ne i32 %34, 0
  br i1 %35, label %36, label %37

36:                                               ; preds = %31
  call void (ptr, ...) @pg_fatal(ptr noundef @.str.97) #11
  unreachable

37:                                               ; preds = %31, %28
  %38 = load ptr, ptr %3, align 8
  call void @PQclear(ptr noundef %38)
  %39 = load ptr, ptr %4, align 8
  call void @PQfinish(ptr noundef %39)
  call void @check_ok()
  call void @llvm.lifetime.end.p0(i64 8, ptr %4) #9
  call void @llvm.lifetime.end.p0(i64 8, ptr %3) #9
  ret void
}