; Function Attrs: nounwind uwtable
define internal fastcc void @check_is_install_user(ptr noundef %0) unnamed_addr #0 {
  %2 = tail call ptr @connectToServer(ptr noundef %0, ptr noundef nonnull @.str.90) #10
  tail call void (ptr, ...) @prep_status(ptr noundef nonnull @.str.91) #10
  %3 = tail call ptr (ptr, ptr, ...) @executeQueryOrDie(ptr noundef %2, ptr noundef nonnull @.str.92) #10
  %4 = tail call i32 @PQntuples(ptr noundef %3) #10
  %.not = icmp eq i32 %4, 1
  br i1 %.not, label %5, label %9

5:                                                ; preds = %1
  %6 = tail call ptr @PQgetvalue(ptr noundef %3, i32 noundef 0, i32 noundef 1) #10
  %7 = tail call i64 @strtoul(ptr noundef captures(none) %6, ptr noundef null, i32 noundef 10) #10
  %8 = and i64 %7, 4294967295
  %.not11 = icmp eq i64 %8, 10
  br i1 %.not11, label %11, label %9

9:                                                ; preds = %5, %1
  %10 = load ptr, ptr getelementptr inbounds nuw (i8, ptr @os_info, i64 8), align 8
  tail call void (ptr, ...) @pg_fatal(ptr noundef nonnull @.str.93, ptr noundef %10) #12
  unreachable

11:                                               ; preds = %5
  tail call void @PQclear(ptr noundef %3) #10
  %12 = tail call ptr (ptr, ptr, ...) @executeQueryOrDie(ptr noundef %2, ptr noundef nonnull @.str.94) #10
  %13 = tail call i32 @PQntuples(ptr noundef %12) #10
  %.not12 = icmp eq i32 %13, 1
  br i1 %.not12, label %15, label %14

14:                                               ; preds = %11
  tail call void (ptr, ...) @pg_fatal(ptr noundef nonnull @.str.95) #12
  unreachable

15:                                               ; preds = %11
  %16 = icmp eq ptr %0, @new_cluster
  br i1 %16, label %sub_0, label %22

sub_0:                                            ; preds = %15
  %17 = tail call ptr @PQgetvalue(ptr noundef %12, i32 noundef 0, i32 noundef 0) #10
  %18 = load i8, ptr %17, align 1
  %.not14 = icmp eq i8 %18, 49
  br i1 %.not14, label %.tail, label %.tail.thread

.tail:                                            ; preds = %sub_0
  %19 = getelementptr inbounds nuw i8, ptr %17, i64 1
  %20 = load i8, ptr %19, align 1
  %21 = icmp eq i8 %20, 0
  br i1 %21, label %22, label %.tail.thread

.tail.thread:                                     ; preds = %sub_0, %.tail
  tail call void (ptr, ...) @pg_fatal(ptr noundef nonnull @.str.97) #12
  unreachable

22:                                               ; preds = %.tail, %15
  tail call void @PQclear(ptr noundef %12) #10
  tail call void @PQfinish(ptr noundef %2) #10
  tail call void @check_ok() #10
  ret void
}